; Function Attrs: null_pointer_is_valid sspstrong uwtable
define hidden noundef ptr @text_import__scan_buffer(ptr noundef %0, i64 noundef %1, ptr noundef captures(none) %2) local_unnamed_addr #0 {
  %4 = icmp ult i64 %1, 2
  br i1 %4, label %text_import__switch_to_buffer.exit, label %5

5:                                                ; preds = %3
  %6 = add i64 %1, -2
  %7 = getelementptr i8, ptr %0, i64 %6
  %8 = load i8, ptr %7, align 1
  %.not = icmp eq i8 %8, 0
  br i1 %.not, label %9, label %text_import__switch_to_buffer.exit

9:                                                ; preds = %5
  %10 = getelementptr i8, ptr %0, i64 %1
  %11 = getelementptr i8, ptr %10, i64 -1
  %12 = load i8, ptr %11, align 1
  %.not25 = icmp eq i8 %12, 0
  br i1 %.not25, label %13, label %text_import__switch_to_buffer.exit

13:                                               ; preds = %9
  %14 = tail call noalias dereferenceable_or_null(64) ptr @malloc(i64 noundef 64) #28
  %.not26 = icmp eq ptr %14, null
  br i1 %.not26, label %15, label %16

15:                                               ; preds = %13
  tail call fastcc void @yy_fatal_error(ptr noundef nonnull @.str.3) #24
  unreachable

16:                                               ; preds = %13
  %17 = trunc i64 %6 to i32
  %18 = getelementptr inbounds nuw i8, ptr %14, i64 24
  store i32 %17, ptr %18, align 8
  %19 = getelementptr inbounds nuw i8, ptr %14, i64 8
  store ptr %0, ptr %19, align 8
  %20 = getelementptr inbounds nuw i8, ptr %14, i64 16
  store ptr %0, ptr %20, align 8
  %21 = getelementptr inbounds nuw i8, ptr %14, i64 32
  store i32 0, ptr %21, align 8
  store ptr null, ptr %14, align 8
  %22 = getelementptr inbounds nuw i8, ptr %14, i64 28
  store i32 %17, ptr %22, align 4
  %23 = getelementptr inbounds nuw i8, ptr %14, i64 36
  store i32 0, ptr %23, align 4
  %24 = getelementptr inbounds nuw i8, ptr %14, i64 40
  store i32 1, ptr %24, align 8
  %25 = getelementptr inbounds nuw i8, ptr %14, i64 52
  store i32 0, ptr %25, align 4
  %26 = getelementptr inbounds nuw i8, ptr %14, i64 56
  store i32 0, ptr %26, align 8
  tail call fastcc void @text_import_ensure_buffer_stack(ptr noundef %2)
  %27 = getelementptr inbounds nuw i8, ptr %2, i64 40
  %28 = load ptr, ptr %27, align 8
  %.not.i = icmp eq ptr %28, null
  br i1 %.not.i, label %53, label %.thread.i

.thread.i:                                        ; preds = %16
  %29 = getelementptr inbounds nuw i8, ptr %2, i64 24
  %30 = load i64, ptr %29, align 8
  %31 = getelementptr ptr, ptr %28, i64 %30
  %32 = load ptr, ptr %31, align 8
  %33 = icmp eq ptr %32, %14
  br i1 %33, label %text_import__switch_to_buffer.exit, label %34

34:                                               ; preds = %.thread.i
  %.not25.i = icmp eq ptr %32, null
  br i1 %.not25.i, label %53, label %35

35:                                               ; preds = %34
  %36 = getelementptr inbounds nuw i8, ptr %2, i64 48
  %37 = load i8, ptr %36, align 8
  %38 = getelementptr inbounds nuw i8, ptr %2, i64 64
  %39 = load ptr, ptr %38, align 8
  store i8 %37, ptr %39, align 1
  %40 = load ptr, ptr %38, align 8
  %41 = load ptr, ptr %27, align 8
  %42 = load i64, ptr %29, align 8
  %43 = getelementptr ptr, ptr %41, i64 %42
  %44 = load ptr, ptr %43, align 8
  %45 = getelementptr inbounds nuw i8, ptr %44, i64 16
  store ptr %40, ptr %45, align 8
  %46 = getelementptr inbounds nuw i8, ptr %2, i64 52
  %47 = load i32, ptr %46, align 4
  %48 = load ptr, ptr %27, align 8
  %49 = load i64, ptr %29, align 8
  %50 = getelementptr ptr, ptr %48, i64 %49
  %51 = load ptr, ptr %50, align 8
  %52 = getelementptr inbounds nuw i8, ptr %51, i64 28
  store i32 %47, ptr %52, align 4
  %.pre.i = load ptr, ptr %27, align 8
  br label %53

53:                                               ; preds = %16, %35, %34
  %54 = phi ptr [ %.pre.i, %35 ], [ %28, %34 ], [ null, %16 ]
  %55 = getelementptr inbounds nuw i8, ptr %2, i64 24
  %56 = load i64, ptr %55, align 8
  %57 = getelementptr ptr, ptr %54, i64 %56
  store ptr %14, ptr %57, align 8
  %58 = load ptr, ptr %27, align 8
  %59 = load i64, ptr %55, align 8
  %60 = getelementptr ptr, ptr %58, i64 %59
  %61 = load ptr, ptr %60, align 8
  %62 = getelementptr inbounds nuw i8, ptr %61, i64 28
  %63 = load i32, ptr %62, align 4
  %64 = getelementptr inbounds nuw i8, ptr %2, i64 52
  store i32 %63, ptr %64, align 4
  %65 = load ptr, ptr %60, align 8
  %66 = getelementptr inbounds nuw i8, ptr %65, i64 16
  %67 = load ptr, ptr %66, align 8
  %68 = getelementptr inbounds nuw i8, ptr %2, i64 64
  store ptr %67, ptr %68, align 8
  %69 = getelementptr inbounds nuw i8, ptr %2, i64 128
  store ptr %67, ptr %69, align 8
  %70 = load ptr, ptr %60, align 8
  %71 = load ptr, ptr %70, align 8
  %72 = getelementptr inbounds nuw i8, ptr %2, i64 8
  store ptr %71, ptr %72, align 8
  %73 = load i8, ptr %67, align 1
  %74 = getelementptr inbounds nuw i8, ptr %2, i64 48
  store i8 %73, ptr %74, align 8
  %75 = getelementptr inbounds nuw i8, ptr %2, i64 80
  store i32 1, ptr %75, align 8
  br label %text_import__switch_to_buffer.exit

text_import__switch_to_buffer.exit:               ; preds = %53, %.thread.i, %3, %5, %9
  %.0 = phi ptr [ null, %9 ], [ null, %5 ], [ null, %3 ], [ %14, %.thread.i ], [ %14, %53 ]
  ret ptr %.0
}